target datalayout = "e-m:e-p270:32:32-p271:32:32-p272:64:64-i64:64-i128:128-f80:128-n8:16:32:64-S128"
target triple = "x86_64-pc-linux-gnu"

%struct._protocol = type { ptr, ptr, ptr, ptr, i32, i8, i8, i8, i32, ptr }

; Function Attrs: nounwind null_pointer_is_valid sspstrong uwtable
define zeroext i1 @proto_is_pino(ptr noundef %0) #3 {
  %2 = alloca ptr, align 8
  store ptr %0, ptr %2, align 8
  %3 = load ptr, ptr %2, align 8
  %4 = getelementptr inbounds nuw %struct._protocol, ptr %3, i32 0, i32 8
  %5 = load i32, ptr %4, align 8
  %6 = icmp ne i32 %5, -1
  ret i1 %6
}

; Function Attrs: null_pointer_is_valid sspstrong uwtable
define zeroext i1 @proto_is_protocol_enabled_by_default(ptr noundef %0) #0 {
  %2 = alloca i1, align 1
  %3 = alloca ptr, align 8
  store ptr %0, ptr %3, align 8
  %4 = load ptr, ptr %3, align 8
  %5 = call zeroext i1 @proto_is_pino(ptr noundef %4)
  br i1 %5, label %6, label %12

6:                                                ; preds = %1
  %7 = load ptr, ptr %3, align 8
  %8 = getelementptr inbounds nuw %struct._protocol, ptr %7, i32 0, i32 8
  %9 = load i32, ptr %8, align 8
  %10 = call ptr @find_protocol_by_id(i32 noundef %9)
  %11 = call zeroext i1 @proto_is_protocol_enabled_by_default(ptr noundef %10)
  store i1 %11, ptr %2, align 1
  br label %17

12:                                               ; preds = %1
  %13 = load ptr, ptr %3, align 8
  %14 = getelementptr inbounds nuw %struct._protocol, ptr %13, i32 0, i32 6
  %15 = load i8, ptr %14, align 1, !range !10, !noundef !11
  %16 = trunc i8 %15 to i1
  store i1 %16, ptr %2, align 1
  br label %17

17:                                               ; preds = %12, %6
  %18 = load i1, ptr %2, align 1
  ret i1 %18
}