; Function Attrs: null_pointer_is_valid sspstrong uwtable
define zeroext i1 @proto_is_protocol_enabled_by_default(ptr noundef readonly captures(none) %0) local_unnamed_addr #0 {
  %2 = getelementptr inbounds nuw i8, ptr %0, i64 40
  %3 = load i32, ptr %2, align 8
  %.not4 = icmp eq i32 %3, -1
  br i1 %.not4, label %tailrecurse._crit_edge, label %tailrecurse

tailrecurse:                                      ; preds = %1, %tailrecurse
  %4 = phi i32 [ %7, %tailrecurse ], [ %3, %1 ]
  %5 = tail call ptr @find_protocol_by_id(i32 noundef %4)
  %6 = getelementptr inbounds nuw i8, ptr %5, i64 40
  %7 = load i32, ptr %6, align 8
  %.not = icmp eq i32 %7, -1
  br i1 %.not, label %tailrecurse._crit_edge, label %tailrecurse

tailrecurse._crit_edge:                           ; preds = %tailrecurse, %1
  %.tr.lcssa = phi ptr [ %0, %1 ], [ %5, %tailrecurse ]
  %8 = getelementptr inbounds nuw i8, ptr %.tr.lcssa, i64 37
  %9 = load i8, ptr %8, align 1, !range !10, !noundef !11
  %10 = trunc nuw i8 %9 to i1
  ret i1 %10
}